target datalayout = "e-m:e-p270:32:32-p271:32:32-p272:64:64-i64:64-i128:128-f80:128-n8:16:32:64-S128"
target triple = "x86_64-pc-linux-gnu"

%"class.pbrt::RNG" = type { i64, i64 }
%"class.pbrt::MLTSampler" = type { i32, %"class.pbrt::RNG", float, float, i32, %"class.pstd::vector.18", i64, i8, i64, i32, i32 }
%"class.pstd::vector.18" = type { %"class.pstd::pmr::polymorphic_allocator.19", ptr, i64, i64 }
%"class.pstd::pmr::polymorphic_allocator.19" = type { ptr }
%"struct.pbrt::MLTSampler::PrimarySample" = type { float, i64, float, i64 }

; Function Attrs: mustprogress nounwind uwtable
define linkonce_odr dso_local void @_ZN4pbrt10MLTSampler13PrimarySample7RestoreEv(ptr noundef nonnull align 8 dereferenceable(32) %0) #3 comdat align 2 {
  %2 = alloca ptr, align 8
  store ptr %0, ptr %2, align 8, !tbaa !155
  %3 = load ptr, ptr %2, align 8
  %4 = getelementptr inbounds nuw %"struct.pbrt::MLTSampler::PrimarySample", ptr %3, i32 0, i32 2
  %5 = load float, ptr %4, align 8, !tbaa !169
  %6 = getelementptr inbounds nuw %"struct.pbrt::MLTSampler::PrimarySample", ptr %3, i32 0, i32 0
  store float %5, ptr %6, align 8, !tbaa !145
  %7 = getelementptr inbounds nuw %"struct.pbrt::MLTSampler::PrimarySample", ptr %3, i32 0, i32 3
  %8 = load i64, ptr %7, align 8, !tbaa !170
  %9 = getelementptr inbounds nuw %"struct.pbrt::MLTSampler::PrimarySample", ptr %3, i32 0, i32 1
  store i64 %8, ptr %9, align 8, !tbaa !156
  ret void
}

; Function Attrs: mustprogress nounwind uwtable
define linkonce_odr dso_local noundef ptr @_ZN4pstd6vectorIN4pbrt10MLTSampler13PrimarySampleENS_3pmr21polymorphic_allocatorIS3_EEE3endEv(ptr noundef nonnull align 8 dereferenceable(32) %0) #3 comdat align 2 {
  %2 = alloca ptr, align 8
  store ptr %0, ptr %2, align 8, !tbaa !161
  %3 = load ptr, ptr %2, align 8
  %4 = getelementptr inbounds nuw %"class.pstd::vector.18", ptr %3, i32 0, i32 1
  %5 = load ptr, ptr %4, align 8, !tbaa !163
  %6 = getelementptr inbounds nuw %"class.pstd::vector.18", ptr %3, i32 0, i32 3
  %7 = load i64, ptr %6, align 8, !tbaa !165
  %8 = getelementptr inbounds nuw %"struct.pbrt::MLTSampler::PrimarySample", ptr %5, i64 %7
  ret ptr %8
}

; Function Attrs: mustprogress nounwind uwtable
define linkonce_odr dso_local noundef ptr @_ZN4pstd6vectorIN4pbrt10MLTSampler13PrimarySampleENS_3pmr21polymorphic_allocatorIS3_EEE5beginEv(ptr noundef nonnull align 8 dereferenceable(32) %0) #3 comdat align 2 {
  %2 = alloca ptr, align 8
  store ptr %0, ptr %2, align 8, !tbaa !161
  %3 = load ptr, ptr %2, align 8
  %4 = getelementptr inbounds nuw %"class.pstd::vector.18", ptr %3, i32 0, i32 1
  %5 = load ptr, ptr %4, align 8, !tbaa !163
  ret ptr %5
}

; Function Attrs: mustprogress uwtable
define dso_local void @_ZN4pbrt10MLTSampler6RejectEv(ptr noundef nonnull align 8 dereferenceable(104) %0) #1 align 2 {
  %2 = alloca ptr, align 8
  %3 = alloca ptr, align 8
  %4 = alloca ptr, align 8
  %5 = alloca ptr, align 8
  %6 = alloca ptr, align 8
  store ptr %0, ptr %2, align 8, !tbaa !143
  %7 = load ptr, ptr %2, align 8
  call void @llvm.lifetime.start.p0(i64 8, ptr %3) #21
  %8 = getelementptr inbounds nuw %"class.pbrt::MLTSampler", ptr %7, i32 0, i32 5
  store ptr %8, ptr %3, align 8, !tbaa !161
  call void @llvm.lifetime.start.p0(i64 8, ptr %4) #21
  %9 = load ptr, ptr %3, align 8, !tbaa !161
  %10 = call noundef ptr @_ZN4pstd6vectorIN4pbrt10MLTSampler13PrimarySampleENS_3pmr21polymorphic_allocatorIS3_EEE5beginEv(ptr noundef nonnull align 8 dereferenceable(32) %9)
  store ptr %10, ptr %4, align 8, !tbaa !155
  call void @llvm.lifetime.start.p0(i64 8, ptr %5) #21
  %11 = load ptr, ptr %3, align 8, !tbaa !161
  %12 = call noundef ptr @_ZN4pstd6vectorIN4pbrt10MLTSampler13PrimarySampleENS_3pmr21polymorphic_allocatorIS3_EEE3endEv(ptr noundef nonnull align 8 dereferenceable(32) %11)
  store ptr %12, ptr %5, align 8, !tbaa !155
  br label %13

13:                                               ; preds = %29, %1
  %14 = load ptr, ptr %4, align 8, !tbaa !155
  %15 = load ptr, ptr %5, align 8, !tbaa !155
  %16 = icmp ne ptr %14, %15
  br i1 %16, label %18, label %17

17:                                               ; preds = %13
  call void @llvm.lifetime.end.p0(i64 8, ptr %5) #21
  call void @llvm.lifetime.end.p0(i64 8, ptr %4) #21
  call void @llvm.lifetime.end.p0(i64 8, ptr %3) #21
  br label %32

18:                                               ; preds = %13
  call void @llvm.lifetime.start.p0(i64 8, ptr %6) #21
  %19 = load ptr, ptr %4, align 8, !tbaa !155
  store ptr %19, ptr %6, align 8, !tbaa !155
  %20 = load ptr, ptr %6, align 8, !tbaa !155
  %21 = getelementptr inbounds nuw %"struct.pbrt::MLTSampler::PrimarySample", ptr %20, i32 0, i32 1
  %22 = load i64, ptr %21, align 8, !tbaa !156
  %23 = getelementptr inbounds nuw %"class.pbrt::MLTSampler", ptr %7, i32 0, i32 6
  %24 = load i64, ptr %23, align 8, !tbaa !159
  %25 = icmp eq i64 %22, %24
  br i1 %25, label %26, label %28

26:                                               ; preds = %18
  %27 = load ptr, ptr %6, align 8, !tbaa !155
  call void @_ZN4pbrt10MLTSampler13PrimarySample7RestoreEv(ptr noundef nonnull align 8 dereferenceable(32) %27)
  br label %28

28:                                               ; preds = %26, %18
  call void @llvm.lifetime.end.p0(i64 8, ptr %6) #21
  br label %29

29:                                               ; preds = %28
  %30 = load ptr, ptr %4, align 8, !tbaa !155
  %31 = getelementptr inbounds nuw %"struct.pbrt::MLTSampler::PrimarySample", ptr %30, i32 1
  store ptr %31, ptr %4, align 8, !tbaa !155
  br label %13

32:                                               ; preds = %17
  %33 = getelementptr inbounds nuw %"class.pbrt::MLTSampler", ptr %7, i32 0, i32 6
  %34 = load i64, ptr %33, align 8, !tbaa !159
  %35 = add nsw i64 %34, -1
  store i64 %35, ptr %33, align 8, !tbaa !159
  ret void
}