; Function Attrs: mustprogress nofree norecurse nosync nounwind memory(readwrite, inaccessiblemem: none) uwtable
define dso_local void @_ZN4pbrt10MLTSampler6RejectEv(ptr noundef nonnull align 8 captures(none) dereferenceable(104) %0) local_unnamed_addr #9 align 2 {
  %2 = getelementptr inbounds nuw i8, ptr %0, i64 48
  %3 = load ptr, ptr %2, align 8, !tbaa !249
  %4 = getelementptr inbounds nuw i8, ptr %0, i64 64
  %5 = load i64, ptr %4, align 8, !tbaa !252
  %6 = getelementptr inbounds nuw %"struct.pbrt::MLTSampler::PrimarySample", ptr %3, i64 %5
  %.not9 = icmp eq i64 %5, 0
  %.phi.trans.insert = getelementptr inbounds nuw i8, ptr %0, i64 72
  %.pre = load i64, ptr %.phi.trans.insert, align 8, !tbaa !258
  br i1 %.not9, label %._crit_edge, label %.lr.ph

._crit_edge:                                      ; preds = %17, %1
  %7 = getelementptr inbounds nuw i8, ptr %0, i64 72
  %8 = add nsw i64 %.pre, -1
  store i64 %8, ptr %7, align 8, !tbaa !258
  ret void

.lr.ph:                                           ; preds = %1, %17
  %.010 = phi ptr [ %18, %17 ], [ %3, %1 ]
  %9 = getelementptr inbounds nuw i8, ptr %.010, i64 8
  %10 = load i64, ptr %9, align 8, !tbaa !253
  %11 = icmp eq i64 %10, %.pre
  br i1 %11, label %12, label %17

12:                                               ; preds = %.lr.ph
  %13 = getelementptr inbounds nuw i8, ptr %.010, i64 16
  %14 = load float, ptr %13, align 8, !tbaa !255
  store float %14, ptr %.010, align 8, !tbaa !250
  %15 = getelementptr inbounds nuw i8, ptr %.010, i64 24
  %16 = load i64, ptr %15, align 8, !tbaa !256
  store i64 %16, ptr %9, align 8, !tbaa !253
  br label %17

17:                                               ; preds = %12, %.lr.ph
  %18 = getelementptr inbounds nuw i8, ptr %.010, i64 32
  %.not = icmp eq ptr %18, %6
  br i1 %.not, label %._crit_edge, label %.lr.ph
}